target datalayout = "e-m:e-p270:32:32-p271:32:32-p272:64:64-i64:64-i128:128-f80:128-n8:16:32:64-S128"
target triple = "x86_64-pc-linux-gnu"

@hf_bucket_bit = internal global i32 0, align 4
@hf_hash_revision = internal global i32 0, align 4
@hf_hash_flag = internal global i32 0, align 4
@hf_hash_flag_u = internal global i32 0, align 4
@.str.21 = private unnamed_addr constant [17 x i8] c"Hash information\00", align 1
@ett_buckets = internal global i32 0, align 4
@ett_hash_flags = internal global i32 0, align 4
@.str.409 = private unnamed_addr constant [15 x i8] c"Bucket %3d: %s\00", align 1
@.str.410 = private unnamed_addr constant [9 x i8] c"Assigned\00", align 1
@.str.411 = private unnamed_addr constant [13 x i8] c"Not Assigned\00", align 1

; Function Attrs: null_pointer_is_valid sspstrong uwtable
define internal i32 @wccp_bucket_info(i8 noundef zeroext %0, ptr noundef %1, i32 noundef %2, ptr noundef %3, i32 noundef %4) #0 {
  %6 = alloca i8, align 1
  %7 = alloca ptr, align 8
  %8 = alloca i32, align 4
  %9 = alloca ptr, align 8
  %10 = alloca i32, align 4
  %11 = alloca i32, align 4
  store i8 %0, ptr %6, align 1
  store ptr %1, ptr %7, align 8
  store i32 %2, ptr %8, align 4
  store ptr %3, ptr %9, align 8
  store i32 %4, ptr %10, align 4
  call void @llvm.lifetime.start.p0(i64 4, ptr %11) #9
  store i32 0, ptr %11, align 4
  br label %12

12:                                               ; preds = %36, %5
  %13 = load i32, ptr %11, align 4
  %14 = icmp ult i32 %13, 8
  br i1 %14, label %15, label %39

15:                                               ; preds = %12
  %16 = load ptr, ptr %7, align 8
  %17 = load i32, ptr @hf_bucket_bit, align 4
  %18 = load ptr, ptr %9, align 8
  %19 = load i32, ptr %10, align 4
  %20 = load i8, ptr %6, align 1
  %21 = zext i8 %20 to i32
  %22 = load i32, ptr %11, align 4
  %23 = shl i32 1, %22
  %24 = and i32 %21, %23
  %25 = load i32, ptr %8, align 4
  %26 = load i8, ptr %6, align 1
  %27 = zext i8 %26 to i32
  %28 = load i32, ptr %11, align 4
  %29 = shl i32 1, %28
  %30 = and i32 %27, %29
  %31 = icmp ne i32 %30, 0
  %32 = select i1 %31, ptr @.str.410, ptr @.str.411
  %33 = call ptr (ptr, i32, ptr, i32, i32, i32, ptr, ...) @proto_tree_add_uint_format(ptr noundef %16, i32 noundef %17, ptr noundef %18, i32 noundef %19, i32 noundef 1, i32 noundef %24, ptr noundef @.str.409, i32 noundef %25, ptr noundef %32)
  %34 = load i32, ptr %8, align 4
  %35 = add i32 %34, 1
  store i32 %35, ptr %8, align 4
  br label %36

36:                                               ; preds = %15
  %37 = load i32, ptr %11, align 4
  %38 = add i32 %37, 1
  store i32 %38, ptr %11, align 4
  br label %12, !llvm.loop !14

39:                                               ; preds = %12
  %40 = load i32, ptr %8, align 4
  call void @llvm.lifetime.end.p0(i64 4, ptr %11) #9
  ret i32 %40
}

; Function Attrs: null_pointer_is_valid sspstrong uwtable
define internal i32 @dissect_hash_data(ptr noundef %0, i32 noundef %1, ptr noundef %2) #0 {
  %4 = alloca ptr, align 8
  %5 = alloca i32, align 4
  %6 = alloca ptr, align 8
  %7 = alloca ptr, align 8
  %8 = alloca ptr, align 8
  %9 = alloca ptr, align 8
  %10 = alloca i32, align 4
  %11 = alloca i8, align 1
  %12 = alloca i32, align 4
  store ptr %0, ptr %4, align 8
  store i32 %1, ptr %5, align 4
  store ptr %2, ptr %6, align 8
  call void @llvm.lifetime.start.p0(i64 8, ptr %7) #9
  call void @llvm.lifetime.start.p0(i64 8, ptr %8) #9
  call void @llvm.lifetime.start.p0(i64 8, ptr %9) #9
  call void @llvm.lifetime.start.p0(i64 4, ptr %10) #9
  call void @llvm.lifetime.start.p0(i64 1, ptr %11) #9
  call void @llvm.lifetime.start.p0(i64 4, ptr %12) #9
  %13 = load ptr, ptr %6, align 8
  %14 = load i32, ptr @hf_hash_revision, align 4
  %15 = load ptr, ptr %4, align 8
  %16 = load i32, ptr %5, align 4
  %17 = call ptr @proto_tree_add_item(ptr noundef %13, i32 noundef %14, ptr noundef %15, i32 noundef %16, i32 noundef 4, i32 noundef 0)
  %18 = load i32, ptr %5, align 4
  %19 = add i32 %18, 4
  store i32 %19, ptr %5, align 4
  %20 = load ptr, ptr %6, align 8
  %21 = load ptr, ptr %4, align 8
  %22 = load i32, ptr %5, align 4
  %23 = load i32, ptr @ett_buckets, align 4
  %24 = call ptr @proto_tree_add_subtree(ptr noundef %20, ptr noundef %21, i32 noundef %22, i32 noundef 32, i32 noundef %23, ptr noundef null, ptr noundef @.str.21)
  store ptr %24, ptr %7, align 8
  store i32 0, ptr %10, align 4
  store i32 0, ptr %12, align 4
  br label %25

25:                                               ; preds = %40, %3
  %26 = load i32, ptr %10, align 4
  %27 = icmp slt i32 %26, 32
  br i1 %27, label %28, label %43

28:                                               ; preds = %25
  %29 = load ptr, ptr %4, align 8
  %30 = load i32, ptr %5, align 4
  %31 = call zeroext i8 @tvb_get_uint8(ptr noundef %29, i32 noundef %30)
  store i8 %31, ptr %11, align 1
  %32 = load i8, ptr %11, align 1
  %33 = load ptr, ptr %7, align 8
  %34 = load i32, ptr %12, align 4
  %35 = load ptr, ptr %4, align 8
  %36 = load i32, ptr %5, align 4
  %37 = call i32 @wccp_bucket_info(i8 noundef zeroext %32, ptr noundef %33, i32 noundef %34, ptr noundef %35, i32 noundef %36)
  store i32 %37, ptr %12, align 4
  %38 = load i32, ptr %5, align 4
  %39 = add i32 %38, 1
  store i32 %39, ptr %5, align 4
  br label %40

40:                                               ; preds = %28
  %41 = load i32, ptr %10, align 4
  %42 = add i32 %41, 1
  store i32 %42, ptr %10, align 4
  br label %25, !llvm.loop !10

43:                                               ; preds = %25
  %44 = load ptr, ptr %6, align 8
  %45 = load i32, ptr @hf_hash_flag, align 4
  %46 = load ptr, ptr %4, align 8
  %47 = load i32, ptr %5, align 4
  %48 = call ptr @proto_tree_add_item(ptr noundef %44, i32 noundef %45, ptr noundef %46, i32 noundef %47, i32 noundef 4, i32 noundef 0)
  store ptr %48, ptr %8, align 8
  %49 = load ptr, ptr %8, align 8
  %50 = load i32, ptr @ett_hash_flags, align 4
  %51 = call ptr @proto_item_add_subtree(ptr noundef %49, i32 noundef %50)
  store ptr %51, ptr %9, align 8
  %52 = load ptr, ptr %9, align 8
  %53 = load i32, ptr @hf_hash_flag_u, align 4
  %54 = load ptr, ptr %4, align 8
  %55 = load i32, ptr %5, align 4
  %56 = call ptr @proto_tree_add_item(ptr noundef %52, i32 noundef %53, ptr noundef %54, i32 noundef %55, i32 noundef 4, i32 noundef 0)
  %57 = load i32, ptr %5, align 4
  %58 = add i32 %57, 4
  store i32 %58, ptr %5, align 4
  %59 = load i32, ptr %5, align 4
  call void @llvm.lifetime.end.p0(i64 4, ptr %12) #9
  call void @llvm.lifetime.end.p0(i64 1, ptr %11) #9
  call void @llvm.lifetime.end.p0(i64 4, ptr %10) #9
  call void @llvm.lifetime.end.p0(i64 8, ptr %9) #9
  call void @llvm.lifetime.end.p0(i64 8, ptr %8) #9
  call void @llvm.lifetime.end.p0(i64 8, ptr %7) #9
  ret i32 %59
}