; Function Attrs: null_pointer_is_valid sspstrong uwtable
define internal fastcc noundef i32 @dissect_hash_data(ptr noundef %0, i32 noundef %1, ptr noundef %2) unnamed_addr #0 {
  %4 = load i32, ptr @hf_hash_revision, align 4
  %5 = tail call ptr @proto_tree_add_item(ptr noundef %2, i32 noundef %4, ptr noundef %0, i32 noundef %1, i32 noundef 4, i32 noundef 0)
  %6 = add i32 %1, 4
  %7 = load i32, ptr @ett_buckets, align 4
  %8 = tail call ptr @proto_tree_add_subtree(ptr noundef %2, ptr noundef %0, i32 noundef %6, i32 noundef 32, i32 noundef %7, ptr noundef null, ptr noundef nonnull @.str.21)
  br label %9

9:                                                ; preds = %3, %wccp_bucket_info.exit
  %.029 = phi i32 [ 0, %3 ], [ %18, %wccp_bucket_info.exit ]
  %.02528 = phi i32 [ %6, %3 ], [ %20, %wccp_bucket_info.exit ]
  %.02627 = phi i32 [ 0, %3 ], [ %21, %wccp_bucket_info.exit ]
  %10 = tail call zeroext i8 @tvb_get_uint8(ptr noundef %0, i32 noundef %.02528)
  %11 = zext i8 %10 to i32
  br label %12

12:                                               ; preds = %12, %9
  %.013.i = phi i32 [ 0, %9 ], [ %19, %12 ]
  %.01112.i = phi i32 [ %.029, %9 ], [ %18, %12 ]
  %13 = load i32, ptr @hf_bucket_bit, align 4
  %14 = shl nuw nsw i32 1, %.013.i
  %15 = and i32 %14, %11
  %.not.i = icmp eq i32 %15, 0
  %16 = select i1 %.not.i, ptr @.str.411, ptr @.str.410
  %17 = tail call ptr (ptr, i32, ptr, i32, i32, i32, ptr, ...) @proto_tree_add_uint_format(ptr noundef %8, i32 noundef %13, ptr noundef %0, i32 noundef %.02528, i32 noundef 1, i32 noundef %15, ptr noundef nonnull @.str.409, i32 noundef %.01112.i, ptr noundef nonnull %16)
  %18 = add i32 %.01112.i, 1
  %19 = add nuw nsw i32 %.013.i, 1
  %exitcond.not.i = icmp eq i32 %19, 8
  br i1 %exitcond.not.i, label %wccp_bucket_info.exit, label %12, !llvm.loop !11

wccp_bucket_info.exit:                            ; preds = %12
  %20 = add i32 %.02528, 1
  %21 = add nuw nsw i32 %.02627, 1
  %exitcond.not = icmp eq i32 %21, 32
  br i1 %exitcond.not, label %22, label %9, !llvm.loop !12

22:                                               ; preds = %wccp_bucket_info.exit
  %23 = load i32, ptr @hf_hash_flag, align 4
  %24 = tail call ptr @proto_tree_add_item(ptr noundef %2, i32 noundef %23, ptr noundef %0, i32 noundef %20, i32 noundef 4, i32 noundef 0)
  %25 = load i32, ptr @ett_hash_flags, align 4
  %26 = tail call ptr @proto_item_add_subtree(ptr noundef %24, i32 noundef %25)
  %27 = load i32, ptr @hf_hash_flag_u, align 4
  %28 = tail call ptr @proto_tree_add_item(ptr noundef %26, i32 noundef %27, ptr noundef %0, i32 noundef %20, i32 noundef 4, i32 noundef 0)
  %29 = add i32 %.02528, 5
  ret i32 %29
}